; Function Attrs: nounwind uwtable
define range(i32 0, 2) i32 @EVP_Q_digest(ptr noundef %0, ptr noundef %1, ptr noundef %2, ptr noundef %3, i64 noundef %4, ptr noundef %5, ptr noundef writeonly captures(address_is_null) %6) local_unnamed_addr #0 {
  %8 = alloca i32, align 4
  %9 = tail call ptr @evp_generic_fetch(ptr noundef %0, i32 noundef 1, ptr noundef %1, ptr noundef %2, ptr noundef nonnull @evp_md_from_algorithm, ptr noundef nonnull @evp_md_up_ref, ptr noundef nonnull @evp_md_free) #8
  call void @llvm.lifetime.start.p0(i64 4, ptr nonnull %8) #8
  store i32 0, ptr %8, align 4, !tbaa !52
  %.not = icmp eq ptr %9, null
  br i1 %.not, label %EVP_MD_free.exit, label %10

10:                                               ; preds = %7
  %11 = call i32 @EVP_Digest(ptr noundef %3, i64 noundef %4, ptr noundef %5, ptr noundef nonnull %8, ptr noundef nonnull %9, ptr noundef null)
  %12 = getelementptr inbounds nuw i8, ptr %9, i64 24
  %13 = load i32, ptr %12, align 8, !tbaa !24
  %.not.i = icmp eq i32 %13, 0
  br i1 %.not.i, label %14, label %EVP_MD_free.exit

14:                                               ; preds = %10
  %15 = getelementptr inbounds nuw i8, ptr %9, i64 120
  %16 = atomicrmw sub ptr %15, i32 1 release, align 4
  %17 = icmp eq i32 %16, 1
  br i1 %17, label %CRYPTO_DOWN_REF.exit.thread.i, label %CRYPTO_DOWN_REF.exit.i

CRYPTO_DOWN_REF.exit.thread.i:                    ; preds = %14
  fence acquire
  br label %19

CRYPTO_DOWN_REF.exit.i:                           ; preds = %14
  %18 = icmp sgt i32 %16, 1
  br i1 %18, label %EVP_MD_free.exit, label %19

19:                                               ; preds = %CRYPTO_DOWN_REF.exit.i, %CRYPTO_DOWN_REF.exit.thread.i
  call void @evp_md_free_int(ptr noundef nonnull %9) #8
  br label %EVP_MD_free.exit

EVP_MD_free.exit:                                 ; preds = %19, %CRYPTO_DOWN_REF.exit.i, %10, %7
  %.0 = phi i32 [ 0, %7 ], [ %11, %10 ], [ %11, %CRYPTO_DOWN_REF.exit.i ], [ %11, %19 ]
  %.not13 = icmp eq ptr %6, null
  br i1 %.not13, label %23, label %20

20:                                               ; preds = %EVP_MD_free.exit
  %21 = load i32, ptr %8, align 4, !tbaa !52
  %22 = zext i32 %21 to i64
  store i64 %22, ptr %6, align 8, !tbaa !50
  br label %23

23:                                               ; preds = %20, %EVP_MD_free.exit
  call void @llvm.lifetime.end.p0(i64 4, ptr nonnull %8) #8
  ret i32 %.0
}